target datalayout = "e-m:e-p270:32:32-p271:32:32-p272:64:64-i64:64-i128:128-f80:128-n8:16:32:64-S128"
target triple = "x86_64-pc-linux-gnu"

%struct._lv_vector_draw_dsc_t = type { %struct._lv_vector_fill_dsc_t, %struct._lv_vector_stroke_dsc_t, %struct._lv_matrix_t, i32, %struct.lv_area_t }
%struct._lv_vector_fill_dsc_t = type { i32, %struct.lv_color32_t, i8, i32, %struct._lv_draw_image_dsc_t, %struct._lv_vector_gradient_t, %struct._lv_matrix_t }
%struct.lv_color32_t = type { i8, i8, i8, i8 }
%struct._lv_draw_image_dsc_t = type { %struct.lv_draw_dsc_base_t, ptr, %struct.lv_image_header_t, i32, i32, i32, i32, i32, %struct.lv_point_t, %struct.lv_color_t, i8, i8, i8, ptr, %struct.lv_area_t, i32, ptr }
%struct.lv_draw_dsc_base_t = type { ptr, i32, i32, i32, ptr, i64, ptr }
%struct.lv_image_header_t = type <{ i64, i32 }>
%struct.lv_point_t = type { i32, i32 }
%struct.lv_color_t = type { i8, i8, i8 }
%struct._lv_vector_gradient_t = type { i32, [2 x %struct.lv_gradient_stop_t], i16, float, float, float, float, float, float, float, i32 }
%struct.lv_gradient_stop_t = type { %struct.lv_color_t, i8, i8 }
%struct._lv_vector_stroke_dsc_t = type { i32, %struct.lv_color32_t, i8, float, %struct._lv_array_t, i32, i32, i16, %struct._lv_vector_gradient_t, %struct._lv_matrix_t }
%struct._lv_array_t = type { ptr, i32, i32, i32, i8 }
%struct._lv_matrix_t = type { [3 x [3 x float]] }
%struct.lv_area_t = type { i32, i32, i32, i32 }
%struct._lv_svg_render_obj = type { ptr, i32, ptr, %struct._lv_vector_draw_dsc_t, %struct._lv_matrix_t, ptr, ptr, ptr, ptr, ptr, ptr, ptr, ptr, ptr }
%struct.lv_svg_render_gradient_t = type { %struct._lv_svg_render_obj, %struct._lv_vector_gradient_t, i8 }

; Function Attrs: nounwind uwtable
define internal void @_set_gradient_ref(ptr noundef %0, ptr noundef %1, ptr noundef %2, i1 noundef zeroext %3) #0 {
  %5 = alloca ptr, align 8
  %6 = alloca ptr, align 8
  %7 = alloca ptr, align 8
  %8 = alloca i8, align 1
  %9 = alloca ptr, align 8
  %10 = alloca ptr, align 8
  %11 = alloca ptr, align 8
  %12 = alloca %struct.lv_area_t, align 4
  %13 = alloca i32, align 4
  %14 = alloca i32, align 4
  store ptr %0, ptr %5, align 8, !tbaa !3
  store ptr %1, ptr %6, align 8, !tbaa !3
  store ptr %2, ptr %7, align 8, !tbaa !3
  %15 = zext i1 %3 to i8
  store i8 %15, ptr %8, align 1, !tbaa !235
  %16 = load ptr, ptr %7, align 8, !tbaa !3
  %17 = getelementptr inbounds nuw %struct._lv_svg_render_obj, ptr %16, i32 0, i32 12
  %18 = load ptr, ptr %17, align 8, !tbaa !254
  %19 = icmp ne ptr %18, null
  br i1 %19, label %21, label %20

20:                                               ; preds = %4
  br label %241

21:                                               ; preds = %4
  call void @llvm.lifetime.start.p0(i64 8, ptr %9) #8
  %22 = load ptr, ptr %5, align 8, !tbaa !3
  store ptr %22, ptr %9, align 8, !tbaa !3
  call void @llvm.lifetime.start.p0(i64 8, ptr %10) #8
  store ptr null, ptr %10, align 8, !tbaa !3
  call void @llvm.lifetime.start.p0(i64 8, ptr %11) #8
  store ptr null, ptr %11, align 8, !tbaa !3
  %23 = load i8, ptr %8, align 1, !tbaa !235, !range !34, !noundef !35
  %24 = trunc i8 %23 to i1
  br i1 %24, label %25, label %35

25:                                               ; preds = %21
  %26 = load ptr, ptr %6, align 8, !tbaa !3
  %27 = getelementptr inbounds nuw %struct._lv_vector_draw_dsc_t, ptr %26, i32 0, i32 0
  %28 = getelementptr inbounds nuw %struct._lv_vector_fill_dsc_t, ptr %27, i32 0, i32 0
  store i32 2, ptr %28, align 8, !tbaa !236
  %29 = load ptr, ptr %6, align 8, !tbaa !3
  %30 = getelementptr inbounds nuw %struct._lv_vector_draw_dsc_t, ptr %29, i32 0, i32 0
  %31 = getelementptr inbounds nuw %struct._lv_vector_fill_dsc_t, ptr %30, i32 0, i32 5
  store ptr %31, ptr %10, align 8, !tbaa !3
  %32 = load ptr, ptr %6, align 8, !tbaa !3
  %33 = getelementptr inbounds nuw %struct._lv_vector_draw_dsc_t, ptr %32, i32 0, i32 0
  %34 = getelementptr inbounds nuw %struct._lv_vector_fill_dsc_t, ptr %33, i32 0, i32 6
  store ptr %34, ptr %11, align 8, !tbaa !3
  br label %45

35:                                               ; preds = %21
  %36 = load ptr, ptr %6, align 8, !tbaa !3
  %37 = getelementptr inbounds nuw %struct._lv_vector_draw_dsc_t, ptr %36, i32 0, i32 1
  %38 = getelementptr inbounds nuw %struct._lv_vector_stroke_dsc_t, ptr %37, i32 0, i32 0
  store i32 2, ptr %38, align 8, !tbaa !237
  %39 = load ptr, ptr %6, align 8, !tbaa !3
  %40 = getelementptr inbounds nuw %struct._lv_vector_draw_dsc_t, ptr %39, i32 0, i32 1
  %41 = getelementptr inbounds nuw %struct._lv_vector_stroke_dsc_t, ptr %40, i32 0, i32 8
  store ptr %41, ptr %10, align 8, !tbaa !3
  %42 = load ptr, ptr %6, align 8, !tbaa !3
  %43 = getelementptr inbounds nuw %struct._lv_vector_draw_dsc_t, ptr %42, i32 0, i32 1
  %44 = getelementptr inbounds nuw %struct._lv_vector_stroke_dsc_t, ptr %43, i32 0, i32 9
  store ptr %44, ptr %11, align 8, !tbaa !3
  br label %45

45:                                               ; preds = %35, %25
  %46 = load ptr, ptr %10, align 8, !tbaa !3
  %47 = load ptr, ptr %9, align 8, !tbaa !3
  %48 = getelementptr inbounds nuw %struct.lv_svg_render_gradient_t, ptr %47, i32 0, i32 1
  %49 = call ptr @lv_memcpy(ptr noundef %46, ptr noundef %48, i64 noundef 48)
  call void @llvm.lifetime.start.p0(i64 16, ptr %12) #8
  call void @llvm.memset.p0.i64(ptr align 4 %12, i8 0, i64 16, i1 false)
  %50 = load ptr, ptr %7, align 8, !tbaa !3
  %51 = getelementptr inbounds nuw %struct._lv_svg_render_obj, ptr %50, i32 0, i32 12
  %52 = load ptr, ptr %51, align 8, !tbaa !254
  %53 = load ptr, ptr %7, align 8, !tbaa !3
  call void %52(ptr noundef %53, ptr noundef %12)
  call void @llvm.lifetime.start.p0(i64 4, ptr %13) #8
  %54 = getelementptr inbounds nuw %struct.lv_area_t, ptr %12, i32 0, i32 2
  %55 = load i32, ptr %54, align 4, !tbaa !151
  %56 = getelementptr inbounds nuw %struct.lv_area_t, ptr %12, i32 0, i32 0
  %57 = load i32, ptr %56, align 4, !tbaa !148
  %58 = sub nsw i32 %55, %57
  store i32 %58, ptr %13, align 4, !tbaa !8
  call void @llvm.lifetime.start.p0(i64 4, ptr %14) #8
  %59 = getelementptr inbounds nuw %struct.lv_area_t, ptr %12, i32 0, i32 3
  %60 = load i32, ptr %59, align 4, !tbaa !153
  %61 = getelementptr inbounds nuw %struct.lv_area_t, ptr %12, i32 0, i32 1
  %62 = load i32, ptr %61, align 4, !tbaa !149
  %63 = sub nsw i32 %60, %62
  store i32 %63, ptr %14, align 4, !tbaa !8
  %64 = load ptr, ptr %9, align 8, !tbaa !3
  %65 = getelementptr inbounds nuw %struct.lv_svg_render_gradient_t, ptr %64, i32 0, i32 1
  %66 = getelementptr inbounds nuw %struct._lv_vector_gradient_t, ptr %65, i32 0, i32 0
  %67 = load i32, ptr %66, align 8, !tbaa !142
  %68 = icmp eq i32 %67, 1
  br i1 %68, label %69, label %149

69:                                               ; preds = %45
  %70 = load ptr, ptr %9, align 8, !tbaa !3
  %71 = getelementptr inbounds nuw %struct.lv_svg_render_gradient_t, ptr %70, i32 0, i32 2
  %72 = load i8, ptr %71, align 8, !tbaa !239
  %73 = zext i8 %72 to i32
  %74 = icmp eq i32 %73, 0
  br i1 %74, label %75, label %148

75:                                               ; preds = %69
  %76 = load ptr, ptr %10, align 8, !tbaa !3
  %77 = getelementptr inbounds nuw %struct._lv_vector_gradient_t, ptr %76, i32 0, i32 7
  %78 = load float, ptr %77, align 4, !tbaa !255
  %79 = fcmp ogt float %78, 1.000000e+00
  br i1 %79, label %80, label %84

80:                                               ; preds = %75
  %81 = load ptr, ptr %10, align 8, !tbaa !3
  %82 = getelementptr inbounds nuw %struct._lv_vector_gradient_t, ptr %81, i32 0, i32 7
  %83 = load float, ptr %82, align 4, !tbaa !255
  br label %91

84:                                               ; preds = %75
  %85 = load ptr, ptr %10, align 8, !tbaa !3
  %86 = getelementptr inbounds nuw %struct._lv_vector_gradient_t, ptr %85, i32 0, i32 7
  %87 = load float, ptr %86, align 4, !tbaa !255
  %88 = load i32, ptr %13, align 4, !tbaa !8
  %89 = sitofp i32 %88 to float
  %90 = fmul float %87, %89
  br label %91

91:                                               ; preds = %84, %80
  %92 = phi float [ %83, %80 ], [ %90, %84 ]
  %93 = load ptr, ptr %10, align 8, !tbaa !3
  %94 = getelementptr inbounds nuw %struct._lv_vector_gradient_t, ptr %93, i32 0, i32 7
  store float %92, ptr %94, align 4, !tbaa !255
  %95 = load ptr, ptr %10, align 8, !tbaa !3
  %96 = getelementptr inbounds nuw %struct._lv_vector_gradient_t, ptr %95, i32 0, i32 8
  %97 = load float, ptr %96, align 4, !tbaa !256
  %98 = fcmp ogt float %97, 1.000000e+00
  br i1 %98, label %99, label %103

99:                                               ; preds = %91
  %100 = load ptr, ptr %10, align 8, !tbaa !3
  %101 = getelementptr inbounds nuw %struct._lv_vector_gradient_t, ptr %100, i32 0, i32 8
  %102 = load float, ptr %101, align 4, !tbaa !256
  br label %110

103:                                              ; preds = %91
  %104 = load ptr, ptr %10, align 8, !tbaa !3
  %105 = getelementptr inbounds nuw %struct._lv_vector_gradient_t, ptr %104, i32 0, i32 8
  %106 = load float, ptr %105, align 4, !tbaa !256
  %107 = load i32, ptr %14, align 4, !tbaa !8
  %108 = sitofp i32 %107 to float
  %109 = fmul float %106, %108
  br label %110

110:                                              ; preds = %103, %99
  %111 = phi float [ %102, %99 ], [ %109, %103 ]
  %112 = load ptr, ptr %10, align 8, !tbaa !3
  %113 = getelementptr inbounds nuw %struct._lv_vector_gradient_t, ptr %112, i32 0, i32 8
  store float %111, ptr %113, align 4, !tbaa !256
  %114 = load ptr, ptr %10, align 8, !tbaa !3
  %115 = getelementptr inbounds nuw %struct._lv_vector_gradient_t, ptr %114, i32 0, i32 9
  %116 = load float, ptr %115, align 4, !tbaa !257
  %117 = fcmp ogt float %116, 1.000000e+00
  br i1 %117, label %118, label %122

118:                                              ; preds = %110
  %119 = load ptr, ptr %10, align 8, !tbaa !3
  %120 = getelementptr inbounds nuw %struct._lv_vector_gradient_t, ptr %119, i32 0, i32 9
  %121 = load float, ptr %120, align 4, !tbaa !257
  br label %137

122:                                              ; preds = %110
  %123 = load ptr, ptr %10, align 8, !tbaa !3
  %124 = getelementptr inbounds nuw %struct._lv_vector_gradient_t, ptr %123, i32 0, i32 9
  %125 = load float, ptr %124, align 4, !tbaa !257
  %126 = load i32, ptr %13, align 4, !tbaa !8
  %127 = load i32, ptr %14, align 4, !tbaa !8
  %128 = icmp sgt i32 %126, %127
  br i1 %128, label %129, label %131

129:                                              ; preds = %122
  %130 = load i32, ptr %13, align 4, !tbaa !8
  br label %133

131:                                              ; preds = %122
  %132 = load i32, ptr %14, align 4, !tbaa !8
  br label %133

133:                                              ; preds = %131, %129
  %134 = phi i32 [ %130, %129 ], [ %132, %131 ]
  %135 = sitofp i32 %134 to float
  %136 = fmul float %125, %135
  br label %137

137:                                              ; preds = %133, %118
  %138 = phi float [ %121, %118 ], [ %136, %133 ]
  %139 = load ptr, ptr %10, align 8, !tbaa !3
  %140 = getelementptr inbounds nuw %struct._lv_vector_gradient_t, ptr %139, i32 0, i32 9
  store float %138, ptr %140, align 4, !tbaa !257
  %141 = load ptr, ptr %11, align 8, !tbaa !3
  %142 = getelementptr inbounds nuw %struct.lv_area_t, ptr %12, i32 0, i32 0
  %143 = load i32, ptr %142, align 4, !tbaa !148
  %144 = sitofp i32 %143 to float
  %145 = getelementptr inbounds nuw %struct.lv_area_t, ptr %12, i32 0, i32 1
  %146 = load i32, ptr %145, align 4, !tbaa !149
  %147 = sitofp i32 %146 to float
  call void @lv_matrix_translate(ptr noundef %141, float noundef %144, float noundef %147)
  br label %148

148:                                              ; preds = %137, %69
  br label %240

149:                                              ; preds = %45
  %150 = load ptr, ptr %9, align 8, !tbaa !3
  %151 = getelementptr inbounds nuw %struct.lv_svg_render_gradient_t, ptr %150, i32 0, i32 2
  %152 = load i8, ptr %151, align 8, !tbaa !239
  %153 = zext i8 %152 to i32
  %154 = icmp eq i32 %153, 0
  br i1 %154, label %155, label %239

155:                                              ; preds = %149
  %156 = load ptr, ptr %10, align 8, !tbaa !3
  %157 = getelementptr inbounds nuw %struct._lv_vector_gradient_t, ptr %156, i32 0, i32 3
  %158 = load float, ptr %157, align 4, !tbaa !258
  %159 = fcmp ogt float %158, 1.000000e+00
  br i1 %159, label %160, label %164

160:                                              ; preds = %155
  %161 = load ptr, ptr %10, align 8, !tbaa !3
  %162 = getelementptr inbounds nuw %struct._lv_vector_gradient_t, ptr %161, i32 0, i32 3
  %163 = load float, ptr %162, align 4, !tbaa !258
  br label %171

164:                                              ; preds = %155
  %165 = load ptr, ptr %10, align 8, !tbaa !3
  %166 = getelementptr inbounds nuw %struct._lv_vector_gradient_t, ptr %165, i32 0, i32 3
  %167 = load float, ptr %166, align 4, !tbaa !258
  %168 = load i32, ptr %13, align 4, !tbaa !8
  %169 = sitofp i32 %168 to float
  %170 = fmul float %167, %169
  br label %171

171:                                              ; preds = %164, %160
  %172 = phi float [ %163, %160 ], [ %170, %164 ]
  %173 = load ptr, ptr %10, align 8, !tbaa !3
  %174 = getelementptr inbounds nuw %struct._lv_vector_gradient_t, ptr %173, i32 0, i32 3
  store float %172, ptr %174, align 4, !tbaa !258
  %175 = load ptr, ptr %10, align 8, !tbaa !3
  %176 = getelementptr inbounds nuw %struct._lv_vector_gradient_t, ptr %175, i32 0, i32 4
  %177 = load float, ptr %176, align 4, !tbaa !259
  %178 = fcmp ogt float %177, 1.000000e+00
  br i1 %178, label %179, label %183

179:                                              ; preds = %171
  %180 = load ptr, ptr %10, align 8, !tbaa !3
  %181 = getelementptr inbounds nuw %struct._lv_vector_gradient_t, ptr %180, i32 0, i32 4
  %182 = load float, ptr %181, align 4, !tbaa !259
  br label %190

183:                                              ; preds = %171
  %184 = load ptr, ptr %10, align 8, !tbaa !3
  %185 = getelementptr inbounds nuw %struct._lv_vector_gradient_t, ptr %184, i32 0, i32 4
  %186 = load float, ptr %185, align 4, !tbaa !259
  %187 = load i32, ptr %14, align 4, !tbaa !8
  %188 = sitofp i32 %187 to float
  %189 = fmul float %186, %188
  br label %190

190:                                              ; preds = %183, %179
  %191 = phi float [ %182, %179 ], [ %189, %183 ]
  %192 = load ptr, ptr %10, align 8, !tbaa !3
  %193 = getelementptr inbounds nuw %struct._lv_vector_gradient_t, ptr %192, i32 0, i32 4
  store float %191, ptr %193, align 4, !tbaa !259
  %194 = load ptr, ptr %10, align 8, !tbaa !3
  %195 = getelementptr inbounds nuw %struct._lv_vector_gradient_t, ptr %194, i32 0, i32 5
  %196 = load float, ptr %195, align 4, !tbaa !260
  %197 = fcmp ogt float %196, 1.000000e+00
  br i1 %197, label %198, label %202

198:                                              ; preds = %190
  %199 = load ptr, ptr %10, align 8, !tbaa !3
  %200 = getelementptr inbounds nuw %struct._lv_vector_gradient_t, ptr %199, i32 0, i32 5
  %201 = load float, ptr %200, align 4, !tbaa !260
  br label %209

202:                                              ; preds = %190
  %203 = load ptr, ptr %10, align 8, !tbaa !3
  %204 = getelementptr inbounds nuw %struct._lv_vector_gradient_t, ptr %203, i32 0, i32 5
  %205 = load float, ptr %204, align 4, !tbaa !260
  %206 = load i32, ptr %13, align 4, !tbaa !8
  %207 = sitofp i32 %206 to float
  %208 = fmul float %205, %207
  br label %209

209:                                              ; preds = %202, %198
  %210 = phi float [ %201, %198 ], [ %208, %202 ]
  %211 = load ptr, ptr %10, align 8, !tbaa !3
  %212 = getelementptr inbounds nuw %struct._lv_vector_gradient_t, ptr %211, i32 0, i32 5
  store float %210, ptr %212, align 4, !tbaa !260
  %213 = load ptr, ptr %10, align 8, !tbaa !3
  %214 = getelementptr inbounds nuw %struct._lv_vector_gradient_t, ptr %213, i32 0, i32 6
  %215 = load float, ptr %214, align 4, !tbaa !261
  %216 = fcmp ogt float %215, 1.000000e+00
  br i1 %216, label %217, label %221

217:                                              ; preds = %209
  %218 = load ptr, ptr %10, align 8, !tbaa !3
  %219 = getelementptr inbounds nuw %struct._lv_vector_gradient_t, ptr %218, i32 0, i32 6
  %220 = load float, ptr %219, align 4, !tbaa !261
  br label %228

221:                                              ; preds = %209
  %222 = load ptr, ptr %10, align 8, !tbaa !3
  %223 = getelementptr inbounds nuw %struct._lv_vector_gradient_t, ptr %222, i32 0, i32 6
  %224 = load float, ptr %223, align 4, !tbaa !261
  %225 = load i32, ptr %14, align 4, !tbaa !8
  %226 = sitofp i32 %225 to float
  %227 = fmul float %224, %226
  br label %228

228:                                              ; preds = %221, %217
  %229 = phi float [ %220, %217 ], [ %227, %221 ]
  %230 = load ptr, ptr %10, align 8, !tbaa !3
  %231 = getelementptr inbounds nuw %struct._lv_vector_gradient_t, ptr %230, i32 0, i32 6
  store float %229, ptr %231, align 4, !tbaa !261
  %232 = load ptr, ptr %11, align 8, !tbaa !3
  %233 = getelementptr inbounds nuw %struct.lv_area_t, ptr %12, i32 0, i32 0
  %234 = load i32, ptr %233, align 4, !tbaa !148
  %235 = sitofp i32 %234 to float
  %236 = getelementptr inbounds nuw %struct.lv_area_t, ptr %12, i32 0, i32 1
  %237 = load i32, ptr %236, align 4, !tbaa !149
  %238 = sitofp i32 %237 to float
  call void @lv_matrix_translate(ptr noundef %232, float noundef %235, float noundef %238)
  br label %239

239:                                              ; preds = %228, %149
  br label %240

240:                                              ; preds = %239, %148
  call void @llvm.lifetime.end.p0(i64 4, ptr %14) #8
  call void @llvm.lifetime.end.p0(i64 4, ptr %13) #8
  call void @llvm.lifetime.end.p0(i64 16, ptr %12) #8
  call void @llvm.lifetime.end.p0(i64 8, ptr %11) #8
  call void @llvm.lifetime.end.p0(i64 8, ptr %10) #8
  call void @llvm.lifetime.end.p0(i64 8, ptr %9) #8
  br label %241

241:                                              ; preds = %240, %20
  ret void
}