; Function Attrs: nounwind uwtable
define internal void @_set_gradient_ref(ptr noundef %0, ptr noundef %1, ptr noundef %2, i1 noundef zeroext %3) #0 {
  %5 = alloca %struct.lv_area_t, align 4
  %6 = getelementptr inbounds nuw i8, ptr %2, i64 560
  %7 = load ptr, ptr %6, align 8, !tbaa !254
  %.not = icmp eq ptr %7, null
  br i1 %.not, label %82, label %8

8:                                                ; preds = %4
  br i1 %3, label %9, label %10

9:                                                ; preds = %8
  store i32 2, ptr %1, align 8, !tbaa !238
  br label %12

10:                                               ; preds = %8
  %11 = getelementptr inbounds nuw i8, ptr %1, i64 248
  store i32 2, ptr %11, align 8, !tbaa !140
  br label %12

12:                                               ; preds = %10, %9
  %.sink69 = phi i64 [ 300, %10 ], [ 160, %9 ]
  %.sink = phi i64 [ 348, %10 ], [ 208, %9 ]
  %13 = getelementptr inbounds nuw i8, ptr %1, i64 %.sink69
  %14 = getelementptr inbounds nuw i8, ptr %1, i64 %.sink
  %15 = getelementptr inbounds nuw i8, ptr %0, i64 576
  %16 = tail call ptr @lv_memcpy(ptr noundef nonnull %13, ptr noundef nonnull %15, i64 noundef 48) #9
  call void @llvm.lifetime.start.p0(i64 16, ptr nonnull %5) #9
  call void @llvm.memset.p0.i64(ptr noundef nonnull align 4 dereferenceable(16) %5, i8 0, i64 16, i1 false)
  %17 = load ptr, ptr %6, align 8, !tbaa !254
  call void %17(ptr noundef nonnull %2, ptr noundef nonnull %5) #9
  %18 = getelementptr inbounds nuw i8, ptr %5, i64 8
  %19 = load i32, ptr %18, align 4, !tbaa !160
  %20 = load i32, ptr %5, align 4, !tbaa !157
  %21 = sub nsw i32 %19, %20
  %22 = getelementptr inbounds nuw i8, ptr %5, i64 12
  %23 = load i32, ptr %22, align 4, !tbaa !162
  %24 = getelementptr inbounds nuw i8, ptr %5, i64 4
  %25 = load i32, ptr %24, align 4, !tbaa !158
  %26 = sub nsw i32 %23, %25
  %27 = load i32, ptr %15, align 8, !tbaa !255
  %28 = icmp eq i32 %27, 1
  %29 = getelementptr inbounds nuw i8, ptr %0, i64 624
  %30 = load i8, ptr %29, align 8, !tbaa !239
  %31 = icmp eq i8 %30, 0
  br i1 %28, label %32, label %55

32:                                               ; preds = %12
  br i1 %31, label %33, label %81

33:                                               ; preds = %32
  %34 = getelementptr inbounds nuw i8, ptr %13, i64 32
  %35 = load float, ptr %34, align 4, !tbaa !256
  %36 = fcmp ogt float %35, 1.000000e+00
  %37 = sitofp i32 %21 to float
  %38 = fmul float %35, %37
  %39 = select i1 %36, float %35, float %38
  store float %39, ptr %34, align 4, !tbaa !256
  %40 = getelementptr inbounds nuw i8, ptr %13, i64 36
  %41 = load float, ptr %40, align 4, !tbaa !257
  %42 = fcmp ogt float %41, 1.000000e+00
  %43 = sitofp i32 %26 to float
  %44 = fmul float %41, %43
  %45 = select i1 %42, float %41, float %44
  store float %45, ptr %40, align 4, !tbaa !257
  %46 = getelementptr inbounds nuw i8, ptr %13, i64 40
  %47 = load float, ptr %46, align 4, !tbaa !258
  %48 = fcmp ogt float %47, 1.000000e+00
  br i1 %48, label %53, label %49

49:                                               ; preds = %33
  %50 = call i32 @llvm.smax.i32(i32 %21, i32 %26)
  %51 = sitofp i32 %50 to float
  %52 = fmul float %47, %51
  br label %53

53:                                               ; preds = %33, %49
  %54 = phi float [ %52, %49 ], [ %47, %33 ]
  store float %54, ptr %46, align 4, !tbaa !258
  br label %.sink.split

55:                                               ; preds = %12
  br i1 %31, label %56, label %81

56:                                               ; preds = %55
  %57 = getelementptr inbounds nuw i8, ptr %13, i64 16
  %58 = load float, ptr %57, align 4, !tbaa !259
  %59 = fcmp ogt float %58, 1.000000e+00
  %60 = sitofp i32 %21 to float
  %61 = fmul float %58, %60
  %62 = select i1 %59, float %58, float %61
  store float %62, ptr %57, align 4, !tbaa !259
  %63 = getelementptr inbounds nuw i8, ptr %13, i64 20
  %64 = load float, ptr %63, align 4, !tbaa !260
  %65 = fcmp ogt float %64, 1.000000e+00
  %66 = sitofp i32 %26 to float
  %67 = fmul float %64, %66
  %68 = select i1 %65, float %64, float %67
  store float %68, ptr %63, align 4, !tbaa !260
  %69 = getelementptr inbounds nuw i8, ptr %13, i64 24
  %70 = load float, ptr %69, align 4, !tbaa !261
  %71 = fcmp ogt float %70, 1.000000e+00
  %72 = fmul float %70, %60
  %73 = select i1 %71, float %70, float %72
  store float %73, ptr %69, align 4, !tbaa !261
  %74 = getelementptr inbounds nuw i8, ptr %13, i64 28
  %75 = load float, ptr %74, align 4, !tbaa !262
  %76 = fcmp ogt float %75, 1.000000e+00
  %77 = fmul float %75, %66
  %78 = select i1 %76, float %75, float %77
  store float %78, ptr %74, align 4, !tbaa !262
  br label %.sink.split

.sink.split:                                      ; preds = %53, %56
  %79 = sitofp i32 %20 to float
  %80 = sitofp i32 %25 to float
  call void @lv_matrix_translate(ptr noundef nonnull %14, float noundef %79, float noundef %80) #9
  br label %81

81:                                               ; preds = %.sink.split, %55, %32
  call void @llvm.lifetime.end.p0(i64 16, ptr nonnull %5) #9
  br label %82

82:                                               ; preds = %4, %81
  ret void
}